target datalayout = "e-m:e-p270:32:32-p271:32:32-p272:64:64-i64:64-i128:128-f80:128-n8:16:32:64-S128"
target triple = "x86_64-pc-linux-gnu"

@plugin_type = external constant [0 x i8], align 1
@.str.26 = private unnamed_addr constant [2 x i8] c",\00", align 1
@.str.27 = private unnamed_addr constant [7 x i8] c"memory\00", align 1
@.str.28 = private unnamed_addr constant [45 x i8] c"%s: %s: Invalid job GPU memory frequency: %s\00", align 1
@__func__._parse_gpu_freq2 = private unnamed_addr constant [17 x i8] c"_parse_gpu_freq2\00", align 1
@.str.29 = private unnamed_addr constant [54 x i8] c"%s: %s: %s: %s: Invalid job device frequency type: %s\00", align 1
@.str.30 = private unnamed_addr constant [8 x i8] c"verbose\00", align 1
@.str.31 = private unnamed_addr constant [38 x i8] c"%s: %s: Invalid job GPU frequency: %s\00", align 1

; Function Attrs: nounwind uwtable
define internal i32 @_xlate_freq_value(ptr noundef %0) #0 {
  %2 = alloca i32, align 4
  %3 = alloca ptr, align 8
  %4 = alloca i32, align 4
  %5 = alloca i32, align 4
  store ptr %0, ptr %3, align 8
  call void @llvm.lifetime.start.p0(i64 4, ptr %4) #6
  %6 = load ptr, ptr %3, align 8
  %7 = icmp ne ptr %6, null
  br i1 %7, label %8, label %20

8:                                                ; preds = %1
  %9 = load ptr, ptr %3, align 8
  %10 = getelementptr inbounds i8, ptr %9, i64 0
  %11 = load i8, ptr %10, align 1
  %12 = sext i8 %11 to i32
  %13 = icmp slt i32 %12, 48
  br i1 %13, label %14, label %21

14:                                               ; preds = %8
  %15 = load ptr, ptr %3, align 8
  %16 = getelementptr inbounds i8, ptr %15, i64 0
  %17 = load i8, ptr %16, align 1
  %18 = sext i8 %17 to i32
  %19 = icmp sgt i32 %18, 57
  br i1 %19, label %20, label %21

20:                                               ; preds = %14, %1
  store i32 0, ptr %2, align 4
  store i32 1, ptr %5, align 4
  br label %26

21:                                               ; preds = %14, %8
  %22 = load ptr, ptr %3, align 8
  %23 = call i64 @strtoul(ptr noundef %22, ptr noundef null, i32 noundef 10) #6
  %24 = trunc i64 %23 to i32
  store i32 %24, ptr %4, align 4
  %25 = load i32, ptr %4, align 4
  store i32 %25, ptr %2, align 4
  store i32 1, ptr %5, align 4
  br label %26

26:                                               ; preds = %21, %20
  call void @llvm.lifetime.end.p0(i64 4, ptr %4) #6
  %27 = load i32, ptr %2, align 4
  ret i32 %27
}

; Function Attrs: nounwind uwtable
define internal void @_parse_gpu_freq2(ptr noundef %0, ptr noundef %1, ptr noundef %2, ptr noundef %3, ptr noundef %4, ptr noundef %5) #0 {
  %7 = alloca ptr, align 8
  %8 = alloca ptr, align 8
  %9 = alloca ptr, align 8
  %10 = alloca ptr, align 8
  %11 = alloca ptr, align 8
  %12 = alloca ptr, align 8
  %13 = alloca ptr, align 8
  %14 = alloca ptr, align 8
  %15 = alloca ptr, align 8
  %16 = alloca ptr, align 8
  %17 = alloca i32, align 4
  store ptr %0, ptr %7, align 8
  store ptr %1, ptr %8, align 8
  store ptr %2, ptr %9, align 8
  store ptr %3, ptr %10, align 8
  store ptr %4, ptr %11, align 8
  store ptr %5, ptr %12, align 8
  call void @llvm.lifetime.start.p0(i64 8, ptr %13) #6
  call void @llvm.lifetime.start.p0(i64 8, ptr %14) #6
  call void @llvm.lifetime.start.p0(i64 8, ptr %15) #6
  call void @llvm.lifetime.start.p0(i64 8, ptr %16) #6
  store ptr null, ptr %16, align 8
  %18 = load ptr, ptr %7, align 8
  %19 = icmp ne ptr %18, null
  br i1 %19, label %20, label %25

20:                                               ; preds = %6
  %21 = load ptr, ptr %7, align 8
  %22 = getelementptr inbounds i8, ptr %21, i64 0
  %23 = load i8, ptr %22, align 1
  %24 = icmp ne i8 %23, 0
  br i1 %24, label %26, label %25

25:                                               ; preds = %20, %6
  store i32 1, ptr %17, align 4
  br label %116

26:                                               ; preds = %20
  %27 = load ptr, ptr %7, align 8
  %28 = call ptr @slurm_xstrdup(ptr noundef %27)
  store ptr %28, ptr %13, align 8
  %29 = load ptr, ptr %13, align 8
  %30 = call ptr @strtok_r(ptr noundef %29, ptr noundef @.str.26, ptr noundef %16) #6
  store ptr %30, ptr %14, align 8
  br label %31

31:                                               ; preds = %113, %26
  %32 = load ptr, ptr %14, align 8
  %33 = icmp ne ptr %32, null
  br i1 %33, label %34, label %115

34:                                               ; preds = %31
  %35 = load ptr, ptr %14, align 8
  %36 = call ptr @strchr(ptr noundef %35, i32 noundef 61) #8
  store ptr %36, ptr %15, align 8
  %37 = load ptr, ptr %15, align 8
  %38 = icmp ne ptr %37, null
  br i1 %38, label %39, label %83

39:                                               ; preds = %34
  %40 = load ptr, ptr %15, align 8
  %41 = getelementptr inbounds i8, ptr %40, i64 0
  store i8 0, ptr %41, align 1
  %42 = load ptr, ptr %15, align 8
  %43 = getelementptr inbounds nuw i8, ptr %42, i32 1
  store ptr %43, ptr %15, align 8
  %44 = load ptr, ptr %14, align 8
  %45 = call i32 @slurm_xstrcasecmp(ptr noundef %44, ptr noundef @.str.27)
  %46 = icmp ne i32 %45, 0
  br i1 %46, label %70, label %47

47:                                               ; preds = %39
  %48 = load ptr, ptr %15, align 8
  %49 = call i32 @_xlate_freq_code(ptr noundef %48)
  %50 = load ptr, ptr %10, align 8
  store i32 %49, ptr %50, align 4
  %51 = icmp ne i32 %49, 0
  br i1 %51, label %69, label %52

52:                                               ; preds = %47
  %53 = load ptr, ptr %15, align 8
  %54 = call i32 @_xlate_freq_value(ptr noundef %53)
  %55 = load ptr, ptr %11, align 8
  store i32 %54, ptr %55, align 4
  %56 = icmp ne i32 %54, 0
  br i1 %56, label %69, label %57

57:                                               ; preds = %52
  br label %58

58:                                               ; preds = %57
  br label %59

59:                                               ; preds = %58
  %60 = call i32 @slurm_get_log_level()
  %61 = icmp sge i32 %60, 5
  br i1 %61, label %62, label %64

62:                                               ; preds = %59
  %63 = load ptr, ptr %14, align 8
  call void (i32, ptr, ...) @slurm_log_var(i32 noundef 5, ptr noundef @.str.28, ptr noundef @plugin_type, ptr noundef @__func__._parse_gpu_freq2, ptr noundef %63)
  br label %64

64:                                               ; preds = %62, %59
  br label %65

65:                                               ; preds = %64
  br label %66

66:                                               ; preds = %65
  br label %67

67:                                               ; preds = %66
  br label %68

68:                                               ; preds = %67
  br label %69

69:                                               ; preds = %68, %52, %47
  br label %82

70:                                               ; preds = %39
  br label %71

71:                                               ; preds = %70
  br label %72

72:                                               ; preds = %71
  %73 = call i32 @slurm_get_log_level()
  %74 = icmp sge i32 %73, 5
  br i1 %74, label %75, label %77

75:                                               ; preds = %72
  %76 = load ptr, ptr %14, align 8
  call void (i32, ptr, ...) @slurm_log_var(i32 noundef 5, ptr noundef @.str.29, ptr noundef @plugin_type, ptr noundef @__func__._parse_gpu_freq2, ptr noundef @plugin_type, ptr noundef @__func__._parse_gpu_freq2, ptr noundef %76)
  br label %77

77:                                               ; preds = %75, %72
  br label %78

78:                                               ; preds = %77
  br label %79

79:                                               ; preds = %78
  br label %80

80:                                               ; preds = %79
  br label %81

81:                                               ; preds = %80
  br label %82

82:                                               ; preds = %81, %69
  br label %113

83:                                               ; preds = %34
  %84 = load ptr, ptr %14, align 8
  %85 = call i32 @slurm_xstrcasecmp(ptr noundef %84, ptr noundef @.str.30)
  %86 = icmp ne i32 %85, 0
  br i1 %86, label %89, label %87

87:                                               ; preds = %83
  %88 = load ptr, ptr %12, align 8
  store i8 1, ptr %88, align 1
  br label %112

89:                                               ; preds = %83
  %90 = load ptr, ptr %14, align 8
  %91 = call i32 @_xlate_freq_code(ptr noundef %90)
  %92 = load ptr, ptr %8, align 8
  store i32 %91, ptr %92, align 4
  %93 = icmp ne i32 %91, 0
  br i1 %93, label %111, label %94

94:                                               ; preds = %89
  %95 = load ptr, ptr %14, align 8
  %96 = call i32 @_xlate_freq_value(ptr noundef %95)
  %97 = load ptr, ptr %9, align 8
  store i32 %96, ptr %97, align 4
  %98 = icmp ne i32 %96, 0
  br i1 %98, label %111, label %99

99:                                               ; preds = %94
  br label %100

100:                                              ; preds = %99
  br label %101

101:                                              ; preds = %100
  %102 = call i32 @slurm_get_log_level()
  %103 = icmp sge i32 %102, 5
  br i1 %103, label %104, label %106

104:                                              ; preds = %101
  %105 = load ptr, ptr %14, align 8
  call void (i32, ptr, ...) @slurm_log_var(i32 noundef 5, ptr noundef @.str.31, ptr noundef @plugin_type, ptr noundef @__func__._parse_gpu_freq2, ptr noundef %105)
  br label %106

106:                                              ; preds = %104, %101
  br label %107

107:                                              ; preds = %106
  br label %108

108:                                              ; preds = %107
  br label %109

109:                                              ; preds = %108
  br label %110

110:                                              ; preds = %109
  br label %111

111:                                              ; preds = %110, %94, %89
  br label %112

112:                                              ; preds = %111, %87
  br label %113

113:                                              ; preds = %112, %82
  %114 = call ptr @strtok_r(ptr noundef null, ptr noundef @.str.26, ptr noundef %16) #6
  store ptr %114, ptr %14, align 8
  br label %31, !llvm.loop !15

115:                                              ; preds = %31
  call void @slurm_xfree(ptr noundef %13)
  store i32 0, ptr %17, align 4
  br label %116

116:                                              ; preds = %115, %25
  call void @llvm.lifetime.end.p0(i64 8, ptr %16) #6
  call void @llvm.lifetime.end.p0(i64 8, ptr %15) #6
  call void @llvm.lifetime.end.p0(i64 8, ptr %14) #6
  call void @llvm.lifetime.end.p0(i64 8, ptr %13) #6
  %117 = load i32, ptr %17, align 4
  switch i32 %117, label %119 [
    i32 0, label %118
    i32 1, label %118
  ]

118:                                              ; preds = %116, %116
  ret void

119:                                              ; preds = %116
  unreachable
}