; Function Attrs: nounwind uwtable
define internal fastcc void @_parse_gpu_freq2(ptr noundef %0, ptr noundef nonnull writeonly captures(none) %1, ptr noundef nonnull writeonly captures(none) %2, ptr noundef nonnull writeonly captures(none) %3, ptr noundef nonnull writeonly captures(none) %4, ptr noundef writeonly captures(none) %5) unnamed_addr #0 {
  %7 = alloca ptr, align 8
  %8 = alloca ptr, align 8
  call void @llvm.lifetime.start.p0(i64 8, ptr nonnull %7) #7
  call void @llvm.lifetime.start.p0(i64 8, ptr nonnull %8) #7
  store ptr null, ptr %8, align 8
  %.not = icmp eq ptr %0, null
  br i1 %.not, label %45, label %9

9:                                                ; preds = %6
  %10 = load i8, ptr %0, align 1
  %.not24 = icmp eq i8 %10, 0
  br i1 %.not24, label %45, label %11

11:                                               ; preds = %9
  %12 = tail call ptr @slurm_xstrdup(ptr noundef nonnull %0) #7
  store ptr %12, ptr %7, align 8
  %13 = call ptr @strtok_r(ptr noundef %12, ptr noundef nonnull @.str.26, ptr noundef nonnull %8) #7
  %.not2533 = icmp eq ptr %13, null
  br i1 %.not2533, label %._crit_edge, label %.lr.ph

.lr.ph:                                           ; preds = %11, %43
  %.034 = phi ptr [ %44, %43 ], [ %13, %11 ]
  %14 = call ptr @strchr(ptr noundef nonnull dereferenceable(1) %.034, i32 noundef 61) #9
  %.not26 = icmp eq ptr %14, null
  br i1 %.not26, label %31, label %15

15:                                               ; preds = %.lr.ph
  store i8 0, ptr %14, align 1
  %16 = getelementptr inbounds nuw i8, ptr %14, i64 1
  %17 = call i32 @slurm_xstrcasecmp(ptr noundef nonnull %.034, ptr noundef nonnull @.str.27) #7
  %.not30 = icmp eq i32 %17, 0
  br i1 %.not30, label %18, label %27

18:                                               ; preds = %15
  %19 = call fastcc i32 @_xlate_freq_code(ptr noundef %16)
  store i32 %19, ptr %3, align 4
  %.not31 = icmp eq i32 %19, 0
  br i1 %.not31, label %20, label %43

20:                                               ; preds = %18
  %21 = call i64 @strtoul(ptr noundef nonnull readonly captures(none) %16, ptr noundef null, i32 noundef 10) #7
  %22 = trunc i64 %21 to i32
  store i32 %22, ptr %4, align 4
  %.not32 = icmp eq i32 %22, 0
  br i1 %.not32, label %23, label %43

23:                                               ; preds = %20
  %24 = call i32 @slurm_get_log_level() #7
  %25 = icmp sgt i32 %24, 4
  br i1 %25, label %26, label %43

26:                                               ; preds = %23
  call void (i32, ptr, ...) @slurm_log_var(i32 noundef 5, ptr noundef nonnull @.str.28, ptr noundef nonnull @plugin_type, ptr noundef nonnull @__func__._parse_gpu_freq2, ptr noundef nonnull %.034) #7
  br label %43

27:                                               ; preds = %15
  %28 = call i32 @slurm_get_log_level() #7
  %29 = icmp sgt i32 %28, 4
  br i1 %29, label %30, label %43

30:                                               ; preds = %27
  call void (i32, ptr, ...) @slurm_log_var(i32 noundef 5, ptr noundef nonnull @.str.29, ptr noundef nonnull @plugin_type, ptr noundef nonnull @__func__._parse_gpu_freq2, ptr noundef nonnull @plugin_type, ptr noundef nonnull @__func__._parse_gpu_freq2, ptr noundef nonnull %.034) #7
  br label %43

31:                                               ; preds = %.lr.ph
  %32 = call i32 @slurm_xstrcasecmp(ptr noundef nonnull %.034, ptr noundef nonnull @.str.30) #7
  %.not27 = icmp eq i32 %32, 0
  br i1 %.not27, label %33, label %34

33:                                               ; preds = %31
  store i8 1, ptr %5, align 1
  br label %43

34:                                               ; preds = %31
  %35 = call fastcc i32 @_xlate_freq_code(ptr noundef %.034)
  store i32 %35, ptr %1, align 4
  %.not28 = icmp eq i32 %35, 0
  br i1 %.not28, label %36, label %43

36:                                               ; preds = %34
  %37 = call i64 @strtoul(ptr noundef nonnull readonly captures(none) %.034, ptr noundef null, i32 noundef 10) #7
  %38 = trunc i64 %37 to i32
  store i32 %38, ptr %2, align 4
  %.not29 = icmp eq i32 %38, 0
  br i1 %.not29, label %39, label %43

39:                                               ; preds = %36
  %40 = call i32 @slurm_get_log_level() #7
  %41 = icmp sgt i32 %40, 4
  br i1 %41, label %42, label %43

42:                                               ; preds = %39
  call void (i32, ptr, ...) @slurm_log_var(i32 noundef 5, ptr noundef nonnull @.str.31, ptr noundef nonnull @plugin_type, ptr noundef nonnull @__func__._parse_gpu_freq2, ptr noundef nonnull %.034) #7
  br label %43

43:                                               ; preds = %33, %39, %42, %36, %34, %23, %26, %20, %18, %30, %27
  %44 = call ptr @strtok_r(ptr noundef null, ptr noundef nonnull @.str.26, ptr noundef nonnull %8) #7
  %.not25 = icmp eq ptr %44, null
  br i1 %.not25, label %._crit_edge, label %.lr.ph, !llvm.loop !13

._crit_edge:                                      ; preds = %43, %11
  call void @slurm_xfree(ptr noundef nonnull %7) #7
  br label %45

45:                                               ; preds = %6, %9, %._crit_edge
  call void @llvm.lifetime.end.p0(i64 8, ptr nonnull %8) #7
  call void @llvm.lifetime.end.p0(i64 8, ptr nonnull %7) #7
  ret void
}